target datalayout = "e-m:e-p270:32:32-p271:32:32-p272:64:64-i64:64-i128:128-f80:128-n8:16:32:64-S128"
target triple = "x86_64-pc-linux-gnu"

%struct.OGLContext = type { ptr, i32, i32, float, i32, i32, i8, i8, i8, i8, i32, i8, ptr, i32, i32, i8 }
%struct._J2DVertex = type { float, float, i8, i8, i8, i8, float, float }

@vertexCache = internal global ptr null, align 8
@vertexCacheIndex = internal global i32 0, align 4
@j2d_glDrawArrays = external global ptr, align 8

; Function Attrs: nounwind uwtable
define hidden void @OGLVertexCache_FlushVertexCache() #0 {
  %1 = load i32, ptr @vertexCacheIndex, align 4
  %2 = icmp sgt i32 %1, 0
  br i1 %2, label %3, label %6

3:                                                ; preds = %0
  %4 = load ptr, ptr @j2d_glDrawArrays, align 8
  %5 = load i32, ptr @vertexCacheIndex, align 4
  call void %4(i32 noundef 7, i32 noundef 0, i32 noundef %5)
  br label %6

6:                                                ; preds = %3, %0
  store i32 0, ptr @vertexCacheIndex, align 4
  ret void
}

; Function Attrs: nounwind uwtable
define hidden void @OGLVertexCache_AddGlyphQuad(ptr noundef %0, float noundef %1, float noundef %2, float noundef %3, float noundef %4, float noundef %5, float noundef %6, float noundef %7, float noundef %8) #0 {
  %10 = alloca ptr, align 8
  %11 = alloca float, align 4
  %12 = alloca float, align 4
  %13 = alloca float, align 4
  %14 = alloca float, align 4
  %15 = alloca float, align 4
  %16 = alloca float, align 4
  %17 = alloca float, align 4
  %18 = alloca float, align 4
  %19 = alloca ptr, align 8
  %20 = alloca ptr, align 8
  %21 = alloca ptr, align 8
  %22 = alloca ptr, align 8
  store ptr %0, ptr %10, align 8
  store float %1, ptr %11, align 4
  store float %2, ptr %12, align 4
  store float %3, ptr %13, align 4
  store float %4, ptr %14, align 4
  store float %5, ptr %15, align 4
  store float %6, ptr %16, align 4
  store float %7, ptr %17, align 4
  store float %8, ptr %18, align 4
  %23 = load i32, ptr @vertexCacheIndex, align 4
  %24 = icmp sge i32 %23, 1024
  br i1 %24, label %25, label %26

25:                                               ; preds = %9
  call void @OGLVertexCache_FlushVertexCache()
  br label %26

26:                                               ; preds = %25, %9
  br label %27

27:                                               ; preds = %26
  br label %28

28:                                               ; preds = %27
  %29 = load ptr, ptr @vertexCache, align 8
  %30 = load i32, ptr @vertexCacheIndex, align 4
  %31 = add nsw i32 %30, 1
  store i32 %31, ptr @vertexCacheIndex, align 4
  %32 = sext i32 %30 to i64
  %33 = getelementptr inbounds %struct._J2DVertex, ptr %29, i64 %32
  store ptr %33, ptr %19, align 8
  %34 = load float, ptr %11, align 4
  %35 = load ptr, ptr %19, align 8
  %36 = getelementptr inbounds %struct._J2DVertex, ptr %35, i32 0, i32 0
  store float %34, ptr %36, align 4
  %37 = load float, ptr %12, align 4
  %38 = load ptr, ptr %19, align 8
  %39 = getelementptr inbounds %struct._J2DVertex, ptr %38, i32 0, i32 1
  store float %37, ptr %39, align 4
  %40 = load ptr, ptr %10, align 8
  %41 = getelementptr inbounds %struct.OGLContext, ptr %40, i32 0, i32 6
  %42 = load i8, ptr %41, align 4
  %43 = load ptr, ptr %19, align 8
  %44 = getelementptr inbounds %struct._J2DVertex, ptr %43, i32 0, i32 2
  store i8 %42, ptr %44, align 4
  %45 = load ptr, ptr %10, align 8
  %46 = getelementptr inbounds %struct.OGLContext, ptr %45, i32 0, i32 7
  %47 = load i8, ptr %46, align 1
  %48 = load ptr, ptr %19, align 8
  %49 = getelementptr inbounds %struct._J2DVertex, ptr %48, i32 0, i32 3
  store i8 %47, ptr %49, align 1
  %50 = load ptr, ptr %10, align 8
  %51 = getelementptr inbounds %struct.OGLContext, ptr %50, i32 0, i32 8
  %52 = load i8, ptr %51, align 2
  %53 = load ptr, ptr %19, align 8
  %54 = getelementptr inbounds %struct._J2DVertex, ptr %53, i32 0, i32 4
  store i8 %52, ptr %54, align 2
  %55 = load ptr, ptr %10, align 8
  %56 = getelementptr inbounds %struct.OGLContext, ptr %55, i32 0, i32 9
  %57 = load i8, ptr %56, align 1
  %58 = load ptr, ptr %19, align 8
  %59 = getelementptr inbounds %struct._J2DVertex, ptr %58, i32 0, i32 5
  store i8 %57, ptr %59, align 1
  %60 = load float, ptr %15, align 4
  %61 = load ptr, ptr %19, align 8
  %62 = getelementptr inbounds %struct._J2DVertex, ptr %61, i32 0, i32 6
  store float %60, ptr %62, align 4
  %63 = load float, ptr %16, align 4
  %64 = load ptr, ptr %19, align 8
  %65 = getelementptr inbounds %struct._J2DVertex, ptr %64, i32 0, i32 7
  store float %63, ptr %65, align 4
  br label %66

66:                                               ; preds = %28
  br label %67

67:                                               ; preds = %66
  %68 = load ptr, ptr @vertexCache, align 8
  %69 = load i32, ptr @vertexCacheIndex, align 4
  %70 = add nsw i32 %69, 1
  store i32 %70, ptr @vertexCacheIndex, align 4
  %71 = sext i32 %69 to i64
  %72 = getelementptr inbounds %struct._J2DVertex, ptr %68, i64 %71
  store ptr %72, ptr %20, align 8
  %73 = load float, ptr %13, align 4
  %74 = load ptr, ptr %20, align 8
  %75 = getelementptr inbounds %struct._J2DVertex, ptr %74, i32 0, i32 0
  store float %73, ptr %75, align 4
  %76 = load float, ptr %12, align 4
  %77 = load ptr, ptr %20, align 8
  %78 = getelementptr inbounds %struct._J2DVertex, ptr %77, i32 0, i32 1
  store float %76, ptr %78, align 4
  %79 = load ptr, ptr %10, align 8
  %80 = getelementptr inbounds %struct.OGLContext, ptr %79, i32 0, i32 6
  %81 = load i8, ptr %80, align 4
  %82 = load ptr, ptr %20, align 8
  %83 = getelementptr inbounds %struct._J2DVertex, ptr %82, i32 0, i32 2
  store i8 %81, ptr %83, align 4
  %84 = load ptr, ptr %10, align 8
  %85 = getelementptr inbounds %struct.OGLContext, ptr %84, i32 0, i32 7
  %86 = load i8, ptr %85, align 1
  %87 = load ptr, ptr %20, align 8
  %88 = getelementptr inbounds %struct._J2DVertex, ptr %87, i32 0, i32 3
  store i8 %86, ptr %88, align 1
  %89 = load ptr, ptr %10, align 8
  %90 = getelementptr inbounds %struct.OGLContext, ptr %89, i32 0, i32 8
  %91 = load i8, ptr %90, align 2
  %92 = load ptr, ptr %20, align 8
  %93 = getelementptr inbounds %struct._J2DVertex, ptr %92, i32 0, i32 4
  store i8 %91, ptr %93, align 2
  %94 = load ptr, ptr %10, align 8
  %95 = getelementptr inbounds %struct.OGLContext, ptr %94, i32 0, i32 9
  %96 = load i8, ptr %95, align 1
  %97 = load ptr, ptr %20, align 8
  %98 = getelementptr inbounds %struct._J2DVertex, ptr %97, i32 0, i32 5
  store i8 %96, ptr %98, align 1
  %99 = load float, ptr %17, align 4
  %100 = load ptr, ptr %20, align 8
  %101 = getelementptr inbounds %struct._J2DVertex, ptr %100, i32 0, i32 6
  store float %99, ptr %101, align 4
  %102 = load float, ptr %16, align 4
  %103 = load ptr, ptr %20, align 8
  %104 = getelementptr inbounds %struct._J2DVertex, ptr %103, i32 0, i32 7
  store float %102, ptr %104, align 4
  br label %105

105:                                              ; preds = %67
  br label %106

106:                                              ; preds = %105
  %107 = load ptr, ptr @vertexCache, align 8
  %108 = load i32, ptr @vertexCacheIndex, align 4
  %109 = add nsw i32 %108, 1
  store i32 %109, ptr @vertexCacheIndex, align 4
  %110 = sext i32 %108 to i64
  %111 = getelementptr inbounds %struct._J2DVertex, ptr %107, i64 %110
  store ptr %111, ptr %21, align 8
  %112 = load float, ptr %13, align 4
  %113 = load ptr, ptr %21, align 8
  %114 = getelementptr inbounds %struct._J2DVertex, ptr %113, i32 0, i32 0
  store float %112, ptr %114, align 4
  %115 = load float, ptr %14, align 4
  %116 = load ptr, ptr %21, align 8
  %117 = getelementptr inbounds %struct._J2DVertex, ptr %116, i32 0, i32 1
  store float %115, ptr %117, align 4
  %118 = load ptr, ptr %10, align 8
  %119 = getelementptr inbounds %struct.OGLContext, ptr %118, i32 0, i32 6
  %120 = load i8, ptr %119, align 4
  %121 = load ptr, ptr %21, align 8
  %122 = getelementptr inbounds %struct._J2DVertex, ptr %121, i32 0, i32 2
  store i8 %120, ptr %122, align 4
  %123 = load ptr, ptr %10, align 8
  %124 = getelementptr inbounds %struct.OGLContext, ptr %123, i32 0, i32 7
  %125 = load i8, ptr %124, align 1
  %126 = load ptr, ptr %21, align 8
  %127 = getelementptr inbounds %struct._J2DVertex, ptr %126, i32 0, i32 3
  store i8 %125, ptr %127, align 1
  %128 = load ptr, ptr %10, align 8
  %129 = getelementptr inbounds %struct.OGLContext, ptr %128, i32 0, i32 8
  %130 = load i8, ptr %129, align 2
  %131 = load ptr, ptr %21, align 8
  %132 = getelementptr inbounds %struct._J2DVertex, ptr %131, i32 0, i32 4
  store i8 %130, ptr %132, align 2
  %133 = load ptr, ptr %10, align 8
  %134 = getelementptr inbounds %struct.OGLContext, ptr %133, i32 0, i32 9
  %135 = load i8, ptr %134, align 1
  %136 = load ptr, ptr %21, align 8
  %137 = getelementptr inbounds %struct._J2DVertex, ptr %136, i32 0, i32 5
  store i8 %135, ptr %137, align 1
  %138 = load float, ptr %17, align 4
  %139 = load ptr, ptr %21, align 8
  %140 = getelementptr inbounds %struct._J2DVertex, ptr %139, i32 0, i32 6
  store float %138, ptr %140, align 4
  %141 = load float, ptr %18, align 4
  %142 = load ptr, ptr %21, align 8
  %143 = getelementptr inbounds %struct._J2DVertex, ptr %142, i32 0, i32 7
  store float %141, ptr %143, align 4
  br label %144

144:                                              ; preds = %106
  br label %145

145:                                              ; preds = %144
  %146 = load ptr, ptr @vertexCache, align 8
  %147 = load i32, ptr @vertexCacheIndex, align 4
  %148 = add nsw i32 %147, 1
  store i32 %148, ptr @vertexCacheIndex, align 4
  %149 = sext i32 %147 to i64
  %150 = getelementptr inbounds %struct._J2DVertex, ptr %146, i64 %149
  store ptr %150, ptr %22, align 8
  %151 = load float, ptr %11, align 4
  %152 = load ptr, ptr %22, align 8
  %153 = getelementptr inbounds %struct._J2DVertex, ptr %152, i32 0, i32 0
  store float %151, ptr %153, align 4
  %154 = load float, ptr %14, align 4
  %155 = load ptr, ptr %22, align 8
  %156 = getelementptr inbounds %struct._J2DVertex, ptr %155, i32 0, i32 1
  store float %154, ptr %156, align 4
  %157 = load ptr, ptr %10, align 8
  %158 = getelementptr inbounds %struct.OGLContext, ptr %157, i32 0, i32 6
  %159 = load i8, ptr %158, align 4
  %160 = load ptr, ptr %22, align 8
  %161 = getelementptr inbounds %struct._J2DVertex, ptr %160, i32 0, i32 2
  store i8 %159, ptr %161, align 4
  %162 = load ptr, ptr %10, align 8
  %163 = getelementptr inbounds %struct.OGLContext, ptr %162, i32 0, i32 7
  %164 = load i8, ptr %163, align 1
  %165 = load ptr, ptr %22, align 8
  %166 = getelementptr inbounds %struct._J2DVertex, ptr %165, i32 0, i32 3
  store i8 %164, ptr %166, align 1
  %167 = load ptr, ptr %10, align 8
  %168 = getelementptr inbounds %struct.OGLContext, ptr %167, i32 0, i32 8
  %169 = load i8, ptr %168, align 2
  %170 = load ptr, ptr %22, align 8
  %171 = getelementptr inbounds %struct._J2DVertex, ptr %170, i32 0, i32 4
  store i8 %169, ptr %171, align 2
  %172 = load ptr, ptr %10, align 8
  %173 = getelementptr inbounds %struct.OGLContext, ptr %172, i32 0, i32 9
  %174 = load i8, ptr %173, align 1
  %175 = load ptr, ptr %22, align 8
  %176 = getelementptr inbounds %struct._J2DVertex, ptr %175, i32 0, i32 5
  store i8 %174, ptr %176, align 1
  %177 = load float, ptr %15, align 4
  %178 = load ptr, ptr %22, align 8
  %179 = getelementptr inbounds %struct._J2DVertex, ptr %178, i32 0, i32 6
  store float %177, ptr %179, align 4
  %180 = load float, ptr %18, align 4
  %181 = load ptr, ptr %22, align 8
  %182 = getelementptr inbounds %struct._J2DVertex, ptr %181, i32 0, i32 7
  store float %180, ptr %182, align 4
  br label %183

183:                                              ; preds = %145
  br label %184

184:                                              ; preds = %183
  ret void
}