; Function Attrs: nounwind uwtable
define hidden void @OGLVertexCache_AddGlyphQuad(ptr nocapture noundef readonly %0, float noundef %1, float noundef %2, float noundef %3, float noundef %4, float noundef %5, float noundef %6, float noundef %7, float noundef %8) local_unnamed_addr #0 {
  %10 = load i32, ptr @vertexCacheIndex, align 4
  %11 = icmp sgt i32 %10, 1023
  br i1 %11, label %OGLVertexCache_FlushVertexCache.exit, label %13

OGLVertexCache_FlushVertexCache.exit:             ; preds = %9
  %12 = load ptr, ptr @j2d_glDrawArrays, align 8
  tail call void %12(i32 noundef 7, i32 noundef 0, i32 noundef %10) #6
  br label %13

13:                                               ; preds = %OGLVertexCache_FlushVertexCache.exit, %9
  %14 = phi i32 [ 0, %OGLVertexCache_FlushVertexCache.exit ], [ %10, %9 ]
  %15 = load ptr, ptr @vertexCache, align 8
  %16 = sext i32 %14 to i64
  %17 = getelementptr inbounds %struct._J2DVertex, ptr %15, i64 %16
  store float %1, ptr %17, align 4
  %18 = getelementptr inbounds i8, ptr %17, i64 4
  store float %2, ptr %18, align 4
  %19 = getelementptr inbounds i8, ptr %0, i64 28
  %20 = load i8, ptr %19, align 4
  %21 = getelementptr inbounds i8, ptr %17, i64 8
  store i8 %20, ptr %21, align 4
  %22 = getelementptr inbounds i8, ptr %0, i64 29
  %23 = load i8, ptr %22, align 1
  %24 = getelementptr inbounds i8, ptr %17, i64 9
  store i8 %23, ptr %24, align 1
  %25 = getelementptr inbounds i8, ptr %0, i64 30
  %26 = load i8, ptr %25, align 2
  %27 = getelementptr inbounds i8, ptr %17, i64 10
  store i8 %26, ptr %27, align 2
  %28 = getelementptr inbounds i8, ptr %0, i64 31
  %29 = load i8, ptr %28, align 1
  %30 = getelementptr inbounds i8, ptr %17, i64 11
  store i8 %29, ptr %30, align 1
  %31 = getelementptr inbounds i8, ptr %17, i64 12
  store float %5, ptr %31, align 4
  %32 = getelementptr inbounds i8, ptr %17, i64 16
  store float %6, ptr %32, align 4
  %33 = sext i32 %14 to i64
  %34 = getelementptr %struct._J2DVertex, ptr %15, i64 %33
  %35 = getelementptr i8, ptr %34, i64 20
  store float %3, ptr %35, align 4
  %36 = getelementptr i8, ptr %34, i64 24
  store float %2, ptr %36, align 4
  %37 = load i8, ptr %19, align 4
  %38 = getelementptr i8, ptr %34, i64 28
  store i8 %37, ptr %38, align 4
  %39 = load i8, ptr %22, align 1
  %40 = getelementptr i8, ptr %34, i64 29
  store i8 %39, ptr %40, align 1
  %41 = load i8, ptr %25, align 2
  %42 = getelementptr i8, ptr %34, i64 30
  store i8 %41, ptr %42, align 2
  %43 = load i8, ptr %28, align 1
  %44 = getelementptr i8, ptr %34, i64 31
  store i8 %43, ptr %44, align 1
  %45 = getelementptr i8, ptr %34, i64 32
  store float %7, ptr %45, align 4
  %46 = getelementptr i8, ptr %34, i64 36
  store float %6, ptr %46, align 4
  %47 = sext i32 %14 to i64
  %48 = getelementptr %struct._J2DVertex, ptr %15, i64 %47
  %49 = getelementptr i8, ptr %48, i64 40
  store float %3, ptr %49, align 4
  %50 = getelementptr i8, ptr %48, i64 44
  store float %4, ptr %50, align 4
  %51 = load i8, ptr %19, align 4
  %52 = getelementptr i8, ptr %48, i64 48
  store i8 %51, ptr %52, align 4
  %53 = load i8, ptr %22, align 1
  %54 = getelementptr i8, ptr %48, i64 49
  store i8 %53, ptr %54, align 1
  %55 = load i8, ptr %25, align 2
  %56 = getelementptr i8, ptr %48, i64 50
  store i8 %55, ptr %56, align 2
  %57 = load i8, ptr %28, align 1
  %58 = getelementptr i8, ptr %48, i64 51
  store i8 %57, ptr %58, align 1
  %59 = getelementptr i8, ptr %48, i64 52
  store float %7, ptr %59, align 4
  %60 = getelementptr i8, ptr %48, i64 56
  store float %8, ptr %60, align 4
  %61 = add nsw i32 %14, 4
  store i32 %61, ptr @vertexCacheIndex, align 4
  %62 = sext i32 %14 to i64
  %63 = getelementptr %struct._J2DVertex, ptr %15, i64 %62
  %64 = getelementptr i8, ptr %63, i64 60
  store float %1, ptr %64, align 4
  %65 = getelementptr i8, ptr %63, i64 64
  store float %4, ptr %65, align 4
  %66 = load i8, ptr %19, align 4
  %67 = getelementptr i8, ptr %63, i64 68
  store i8 %66, ptr %67, align 4
  %68 = load i8, ptr %22, align 1
  %69 = getelementptr i8, ptr %63, i64 69
  store i8 %68, ptr %69, align 1
  %70 = load i8, ptr %25, align 2
  %71 = getelementptr i8, ptr %63, i64 70
  store i8 %70, ptr %71, align 2
  %72 = load i8, ptr %28, align 1
  %73 = getelementptr i8, ptr %63, i64 71
  store i8 %72, ptr %73, align 1
  %74 = getelementptr i8, ptr %63, i64 72
  store float %5, ptr %74, align 4
  %75 = getelementptr i8, ptr %63, i64 76
  store float %8, ptr %75, align 4
  ret void
}